target datalayout = "e-m:e-p270:32:32-p271:32:32-p272:64:64-i64:64-i128:128-f80:128-n8:16:32:64-S128"
target triple = "x86_64-pc-linux-gnu"

%struct.ckh_t = type { i64, i64, i32, i32, ptr, ptr, ptr }
%struct.tsd_s = type { i8, i8, i8, i64, i64, i64, i64, i64, i64, i64, i64, i64, i64, i64, i64, ptr, i64, i64, i64, ptr, ptr, %struct.ticker_geom_s, i8, %struct.tsd_binshards_s, %struct.tsd_link_t, i8, %struct.peak_s, %struct.activity_callback_thunk_s, %struct.tcache_slow_s, %struct.rtree_ctx_s, %struct.atomic_u8_t, i64, i64, i64, i64, %struct.tcache_s, %struct.witness_tsd_s }
%struct.ticker_geom_s = type { i32, i32 }
%struct.tsd_binshards_s = type { [36 x i8] }
%struct.tsd_link_t = type { ptr, ptr }
%struct.peak_s = type { i64, i64 }
%struct.activity_callback_thunk_s = type { ptr, ptr }
%struct.tcache_slow_s = type { %struct.anon.5, %struct.cache_bin_array_descriptor_s, ptr, i32, i32, [36 x i8], [36 x i8], [36 x i8], ptr, ptr }
%struct.anon.5 = type { ptr, ptr }
%struct.cache_bin_array_descriptor_s = type { %struct.anon.6, ptr }
%struct.anon.6 = type { ptr, ptr }
%struct.rtree_ctx_s = type { [16 x %struct.rtree_ctx_cache_elm_s], [8 x %struct.rtree_ctx_cache_elm_s] }
%struct.rtree_ctx_cache_elm_s = type { i64, ptr }
%struct.atomic_u8_t = type { i8 }
%struct.tcache_s = type { ptr, [73 x %struct.cache_bin_s] }
%struct.cache_bin_s = type { ptr, %struct.cache_bin_stats_s, i16, i16, i16, %struct.cache_bin_info_s }
%struct.cache_bin_stats_s = type { i64 }
%struct.cache_bin_info_s = type { i16 }
%struct.witness_tsd_s = type { %struct.witness_list_t, i8 }
%struct.witness_list_t = type { ptr }
%struct.prof_tdata_s = type { ptr, i64, i64, %struct.anon, i64, %struct.ckh_t, [16 x i8], i8, i8, i8, i8, i8, i8, i8, %struct.prof_cnt_s, ptr }
%struct.anon = type { ptr, ptr }
%struct.prof_cnt_s = type { i64, i64, i64, i64, i64, i64, i64, i64 }

; Function Attrs: alwaysinline nounwind uwtable
define internal ptr @tsd_prof_tdatap_get_unsafe(ptr noundef %0) #3 {
  %2 = alloca ptr, align 8
  store ptr %0, ptr %2, align 8, !tbaa !3
  %3 = load ptr, ptr %2, align 8, !tbaa !3
  %4 = getelementptr inbounds nuw %struct.tsd_s, ptr %3, i32 0, i32 15
  ret ptr %4
}

; Function Attrs: alwaysinline nounwind uwtable
define internal zeroext i8 @tsd_state_get(ptr noundef %0) #3 {
  %2 = alloca ptr, align 8
  store ptr %0, ptr %2, align 8, !tbaa !3
  %3 = load ptr, ptr %2, align 8, !tbaa !3
  %4 = getelementptr inbounds nuw %struct.tsd_s, ptr %3, i32 0, i32 30
  %5 = load i8, ptr %4, align 8, !tbaa !32
  ret i8 %5
}

; Function Attrs: alwaysinline nounwind uwtable
define internal ptr @tsd_prof_tdatap_get(ptr noundef %0) #3 {
  %2 = alloca ptr, align 8
  %3 = alloca i8, align 1
  store ptr %0, ptr %2, align 8, !tbaa !3
  call void @llvm.lifetime.start.p0(i64 1, ptr %3) #14
  %4 = load ptr, ptr %2, align 8, !tbaa !3
  %5 = call zeroext i8 @tsd_state_get(ptr noundef %4)
  store i8 %5, ptr %3, align 1, !tbaa !32
  br label %6

6:                                                ; preds = %1
  br label %7

7:                                                ; preds = %6
  br label %8

8:                                                ; preds = %7
  %9 = load ptr, ptr %2, align 8, !tbaa !3
  %10 = call ptr @tsd_prof_tdatap_get_unsafe(ptr noundef %9)
  call void @llvm.lifetime.end.p0(i64 1, ptr %3) #14
  ret ptr %10
}

; Function Attrs: alwaysinline nounwind uwtable
define internal void @prof_thread_name_assert(ptr noundef %0) #3 {
  %2 = alloca ptr, align 8
  store ptr %0, ptr %2, align 8, !tbaa !20
  ret void
}

; Function Attrs: alwaysinline nounwind uwtable
define internal void @tsd_prof_tdata_set(ptr noundef %0, ptr noundef %1) #3 {
  %3 = alloca ptr, align 8
  %4 = alloca ptr, align 8
  store ptr %0, ptr %3, align 8, !tbaa !3
  store ptr %1, ptr %4, align 8, !tbaa !20
  br label %5

5:                                                ; preds = %2
  br label %6

6:                                                ; preds = %5
  %7 = load ptr, ptr %4, align 8, !tbaa !20
  %8 = load ptr, ptr %3, align 8, !tbaa !3
  %9 = call ptr @tsd_prof_tdatap_get(ptr noundef %8)
  store ptr %7, ptr %9, align 8, !tbaa !20
  ret void
}

; Function Attrs: inlinehint nounwind uwtable
define internal zeroext i1 @tsd_nominal(ptr noundef %0) #4 {
  %2 = alloca ptr, align 8
  %3 = alloca i8, align 1
  store ptr %0, ptr %2, align 8, !tbaa !3
  call void @llvm.lifetime.start.p0(i64 1, ptr %3) #14
  %4 = load ptr, ptr %2, align 8, !tbaa !3
  %5 = call zeroext i8 @tsd_state_get(ptr noundef %4)
  %6 = zext i8 %5 to i32
  %7 = icmp sle i32 %6, 2
  %8 = zext i1 %7 to i8
  store i8 %8, ptr %3, align 1, !tbaa !29
  br label %9

9:                                                ; preds = %1
  br label %10

10:                                               ; preds = %9
  br label %11

11:                                               ; preds = %10
  %12 = load i8, ptr %3, align 1, !tbaa !29, !range !30, !noundef !31
  %13 = trunc i8 %12 to i1
  call void @llvm.lifetime.end.p0(i64 1, ptr %3) #14
  ret i1 %13
}

; Function Attrs: alwaysinline nounwind uwtable
define internal ptr @tsd_prof_tdata_get(ptr noundef %0) #3 {
  %2 = alloca ptr, align 8
  store ptr %0, ptr %2, align 8, !tbaa !3
  %3 = load ptr, ptr %2, align 8, !tbaa !3
  %4 = call ptr @tsd_prof_tdatap_get(ptr noundef %3)
  %5 = load ptr, ptr %4, align 8, !tbaa !20
  ret ptr %5
}

; Function Attrs: nounwind uwtable
define internal void @prof_thread_name_write_tdata(ptr noundef %0, ptr noundef %1) #0 {
  %3 = alloca ptr, align 8
  %4 = alloca ptr, align 8
  store ptr %0, ptr %3, align 8, !tbaa !20
  store ptr %1, ptr %4, align 8, !tbaa !77
  %5 = load ptr, ptr %3, align 8, !tbaa !20
  %6 = getelementptr inbounds nuw %struct.prof_tdata_s, ptr %5, i32 0, i32 6
  %7 = getelementptr inbounds [16 x i8], ptr %6, i64 0, i64 0
  %8 = load ptr, ptr %4, align 8, !tbaa !77
  %9 = call ptr @strncpy(ptr noundef %7, ptr noundef %8, i64 noundef 16) #14
  %10 = load ptr, ptr %3, align 8, !tbaa !20
  %11 = getelementptr inbounds nuw %struct.prof_tdata_s, ptr %10, i32 0, i32 6
  %12 = getelementptr inbounds [16 x i8], ptr %11, i64 0, i64 15
  store i8 0, ptr %12, align 1, !tbaa !32
  ret void
}

; Function Attrs: alwaysinline nounwind uwtable
define internal ptr @prof_tdata_get(ptr noundef %0, i1 noundef zeroext %1) #3 {
  %3 = alloca ptr, align 8
  %4 = alloca i8, align 1
  %5 = alloca ptr, align 8
  store ptr %0, ptr %3, align 8, !tbaa !3
  %6 = zext i1 %1 to i8
  store i8 %6, ptr %4, align 1, !tbaa !29
  call void @llvm.lifetime.start.p0(i64 8, ptr %5) #14
  br label %7

7:                                                ; preds = %2
  br label %8

8:                                                ; preds = %7
  unreachable

9:                                                ; No predecessors!
  br label %10

10:                                               ; preds = %9
  br label %11

11:                                               ; preds = %10
  br label %12

12:                                               ; preds = %11
  %13 = load ptr, ptr %3, align 8, !tbaa !3
  %14 = call ptr @tsd_prof_tdata_get(ptr noundef %13)
  store ptr %14, ptr %5, align 8, !tbaa !20
  %15 = load i8, ptr %4, align 1, !tbaa !29, !range !30, !noundef !31
  %16 = trunc i8 %15 to i1
  br i1 %16, label %17, label %60

17:                                               ; preds = %12
  br label %18

18:                                               ; preds = %17
  br label %19

19:                                               ; preds = %18
  br label %20

20:                                               ; preds = %19
  %21 = load ptr, ptr %5, align 8, !tbaa !20
  %22 = icmp eq ptr %21, null
  %23 = xor i1 %22, true
  %24 = xor i1 %23, true
  %25 = zext i1 %24 to i32
  %26 = sext i32 %25 to i64
  %27 = call i64 @llvm.expect.i64(i64 %26, i64 0)
  %28 = icmp ne i64 %27, 0
  br i1 %28, label %29, label %38

29:                                               ; preds = %20
  %30 = load ptr, ptr %3, align 8, !tbaa !3
  %31 = call zeroext i1 @tsd_nominal(ptr noundef %30)
  br i1 %31, label %32, label %37

32:                                               ; preds = %29
  %33 = load ptr, ptr %3, align 8, !tbaa !3
  %34 = call ptr @duckdb_je_prof_tdata_init(ptr noundef %33)
  store ptr %34, ptr %5, align 8, !tbaa !20
  %35 = load ptr, ptr %3, align 8, !tbaa !3
  %36 = load ptr, ptr %5, align 8, !tbaa !20
  call void @tsd_prof_tdata_set(ptr noundef %35, ptr noundef %36)
  br label %37

37:                                               ; preds = %32, %29
  br label %56

38:                                               ; preds = %20
  %39 = load ptr, ptr %5, align 8, !tbaa !20
  %40 = getelementptr inbounds nuw %struct.prof_tdata_s, ptr %39, i32 0, i32 13
  %41 = load i8, ptr %40, align 2, !tbaa !54, !range !30, !noundef !31
  %42 = trunc i8 %41 to i1
  %43 = xor i1 %42, true
  %44 = xor i1 %43, true
  %45 = zext i1 %44 to i32
  %46 = sext i32 %45 to i64
  %47 = call i64 @llvm.expect.i64(i64 %46, i64 0)
  %48 = icmp ne i64 %47, 0
  br i1 %48, label %49, label %55

49:                                               ; preds = %38
  %50 = load ptr, ptr %3, align 8, !tbaa !3
  %51 = load ptr, ptr %5, align 8, !tbaa !20
  %52 = call ptr @duckdb_je_prof_tdata_reinit(ptr noundef %50, ptr noundef %51)
  store ptr %52, ptr %5, align 8, !tbaa !20
  %53 = load ptr, ptr %3, align 8, !tbaa !3
  %54 = load ptr, ptr %5, align 8, !tbaa !20
  call void @tsd_prof_tdata_set(ptr noundef %53, ptr noundef %54)
  br label %55

55:                                               ; preds = %49, %38
  br label %56

56:                                               ; preds = %55, %37
  br label %57

57:                                               ; preds = %56
  br label %58

58:                                               ; preds = %57
  br label %59

59:                                               ; preds = %58
  br label %60

60:                                               ; preds = %59, %12
  %61 = load ptr, ptr %5, align 8, !tbaa !20
  %62 = icmp ne ptr %61, null
  br i1 %62, label %63, label %65

63:                                               ; preds = %60
  %64 = load ptr, ptr %5, align 8, !tbaa !20
  call void @prof_thread_name_assert(ptr noundef %64)
  br label %65

65:                                               ; preds = %63, %60
  %66 = load ptr, ptr %5, align 8, !tbaa !20
  call void @llvm.lifetime.end.p0(i64 8, ptr %5) #14
  ret ptr %66
}

; Function Attrs: nounwind uwtable
define i32 @duckdb_je_prof_thread_name_set_impl(ptr noundef %0, ptr noundef %1) #0 {
  %3 = alloca i32, align 4
  %4 = alloca ptr, align 8
  %5 = alloca ptr, align 8
  %6 = alloca i32, align 4
  %7 = alloca i32, align 4
  %8 = alloca i8, align 1
  %9 = alloca ptr, align 8
  store ptr %0, ptr %4, align 8, !tbaa !3
  store ptr %1, ptr %5, align 8, !tbaa !77
  br label %10

10:                                               ; preds = %2
  br label %11

11:                                               ; preds = %10
  br label %12

12:                                               ; preds = %11
  br label %13

13:                                               ; preds = %12
  call void @llvm.lifetime.start.p0(i64 4, ptr %6) #14
  store i32 0, ptr %6, align 4, !tbaa !63
  br label %14

14:                                               ; preds = %55, %13
  %15 = load ptr, ptr %5, align 8, !tbaa !77
  %16 = load i32, ptr %6, align 4, !tbaa !63
  %17 = zext i32 %16 to i64
  %18 = getelementptr inbounds nuw i8, ptr %15, i64 %17
  %19 = load i8, ptr %18, align 1, !tbaa !32
  %20 = sext i8 %19 to i32
  %21 = icmp ne i32 %20, 0
  br i1 %21, label %23, label %22

22:                                               ; preds = %14
  store i32 6, ptr %7, align 4
  br label %58

23:                                               ; preds = %14
  call void @llvm.lifetime.start.p0(i64 1, ptr %8) #14
  %24 = load ptr, ptr %5, align 8, !tbaa !77
  %25 = load i32, ptr %6, align 4, !tbaa !63
  %26 = zext i32 %25 to i64
  %27 = getelementptr inbounds nuw i8, ptr %24, i64 %26
  %28 = load i8, ptr %27, align 1, !tbaa !32
  store i8 %28, ptr %8, align 1, !tbaa !32
  %29 = call ptr @__ctype_b_loc() #16
  %30 = load ptr, ptr %29, align 8, !tbaa !79
  %31 = load i8, ptr %8, align 1, !tbaa !32
  %32 = sext i8 %31 to i32
  %33 = sext i32 %32 to i64
  %34 = getelementptr inbounds i16, ptr %30, i64 %33
  %35 = load i16, ptr %34, align 2, !tbaa !81
  %36 = zext i16 %35 to i32
  %37 = and i32 %36, 32768
  %38 = icmp ne i32 %37, 0
  br i1 %38, label %51, label %39

39:                                               ; preds = %23
  %40 = call ptr @__ctype_b_loc() #16
  %41 = load ptr, ptr %40, align 8, !tbaa !79
  %42 = load i8, ptr %8, align 1, !tbaa !32
  %43 = sext i8 %42 to i32
  %44 = sext i32 %43 to i64
  %45 = getelementptr inbounds i16, ptr %41, i64 %44
  %46 = load i16, ptr %45, align 2, !tbaa !81
  %47 = zext i16 %46 to i32
  %48 = and i32 %47, 1
  %49 = icmp ne i32 %48, 0
  br i1 %49, label %51, label %50

50:                                               ; preds = %39
  store i32 22, ptr %3, align 4
  store i32 1, ptr %7, align 4
  br label %52

51:                                               ; preds = %39, %23
  store i32 0, ptr %7, align 4
  br label %52

52:                                               ; preds = %51, %50
  call void @llvm.lifetime.end.p0(i64 1, ptr %8) #14
  %53 = load i32, ptr %7, align 4
  switch i32 %53, label %58 [
    i32 0, label %54
  ]

54:                                               ; preds = %52
  br label %55

55:                                               ; preds = %54
  %56 = load i32, ptr %6, align 4, !tbaa !63
  %57 = add i32 %56, 1
  store i32 %57, ptr %6, align 4, !tbaa !63
  br label %14

58:                                               ; preds = %52, %22
  call void @llvm.lifetime.end.p0(i64 4, ptr %6) #14
  %59 = load i32, ptr %7, align 4
  switch i32 %59, label %72 [
    i32 6, label %60
    i32 1, label %70
  ]

60:                                               ; preds = %58
  call void @llvm.lifetime.start.p0(i64 8, ptr %9) #14
  %61 = load ptr, ptr %4, align 8, !tbaa !3
  %62 = call ptr @prof_tdata_get(ptr noundef %61, i1 noundef zeroext true)
  store ptr %62, ptr %9, align 8, !tbaa !20
  %63 = load ptr, ptr %9, align 8, !tbaa !20
  %64 = icmp eq ptr %63, null
  br i1 %64, label %65, label %66

65:                                               ; preds = %60
  store i32 12, ptr %3, align 4
  store i32 1, ptr %7, align 4
  br label %69

66:                                               ; preds = %60
  %67 = load ptr, ptr %9, align 8, !tbaa !20
  %68 = load ptr, ptr %5, align 8, !tbaa !77
  call void @prof_thread_name_write_tdata(ptr noundef %67, ptr noundef %68)
  store i32 0, ptr %3, align 4
  store i32 1, ptr %7, align 4
  br label %69

69:                                               ; preds = %66, %65
  call void @llvm.lifetime.end.p0(i64 8, ptr %9) #14
  br label %70

70:                                               ; preds = %69, %58
  %71 = load i32, ptr %3, align 4
  ret i32 %71

72:                                               ; preds = %58
  unreachable
}