; Function Attrs: nofree nosync nounwind memory(read, inaccessiblemem: none) uwtable
define noundef i32 @duckdb_je_prof_thread_name_set_impl(ptr noundef readnone captures(none) %0, ptr noundef readonly captures(none) %1) local_unnamed_addr #6 {
  %3 = tail call ptr @__ctype_b_loc() #14
  %4 = load ptr, ptr %3, align 8, !tbaa !25
  br label %.critedge

.critedge:                                        ; preds = %.critedge, %2
  %.013 = phi i32 [ 0, %2 ], [ %12, %.critedge ]
  %5 = zext i32 %.013 to i64
  %6 = getelementptr inbounds nuw i8, ptr %1, i64 %5
  %7 = load i8, ptr %6, align 1, !tbaa !15
  %.not = icmp ne i8 %7, 0
  tail call void @llvm.assume(i1 %.not)
  %8 = sext i8 %7 to i64
  %9 = getelementptr inbounds i16, ptr %4, i64 %8
  %10 = load i16, ptr %9, align 2, !tbaa !27
  %11 = and i16 %10, -32767
  %or.cond = icmp eq i16 %11, 0
  %12 = add i32 %.013, 1
  br i1 %or.cond, label %13, label %.critedge

13:                                               ; preds = %.critedge
  ret i32 22
}